; ModuleID = '2/813.c'
source_filename = "2/813.c"
target datalayout = "e-m:e-p270:32:32-p271:32:32-p272:64:64-i64:64-f80:128-n8:16:32:64-S128"
target triple = "x86_64-pc-linux-gnu"

@__const.main.letter = private unnamed_addr constant [26 x i8] c"ABCDEFGHIJKLMNOPQRSTUVWXYZ", align 16
@.str = private unnamed_addr constant [3 x i8] c"%d\00", align 1
@.str.1 = private unnamed_addr constant [6 x i8] c"%d %s\00", align 1
@.str.2 = private unnamed_addr constant [4 x i8] c"%c\0A\00", align 1
@.str.3 = private unnamed_addr constant [4 x i8] c"%d\0A\00", align 1

; Function Attrs: noinline nounwind uwtable
define dso_local void @main() #0 {
  %1 = alloca i32, align 4
  %2 = alloca i32, align 4
  %3 = alloca i32, align 4
  %4 = alloca i32, align 4
  %5 = alloca [26 x i32], align 16
  %6 = alloca [100 x i32], align 16
  %7 = alloca i32, align 4
  %8 = alloca i32, align 4
  %9 = alloca i32, align 4
  %10 = alloca [26 x i8], align 16
  %11 = alloca [100 x [26 x i8]], align 16
  store i32 0, i32* %3, align 4
  store i32 0, i32* %4, align 4
  %12 = bitcast [26 x i32]* %5 to i8*
  call void @llvm.memset.p0i8.i64(i8* align 16 %12, i8 0, i64 104, i1 false)
  %13 = bitcast [26 x i8]* %10 to i8*
  call void @llvm.memcpy.p0i8.p0i8.i64(i8* align 16 %13, i8* align 16 getelementptr inbounds ([26 x i8], [26 x i8]* @__const.main.letter, i32 0, i32 0), i64 26, i1 false)
  %14 = call i32 (i8*, ...) @__isoc99_scanf(i8* getelementptr inbounds ([3 x i8], [3 x i8]* @.str, i64 0, i64 0), i32* %1)
  store i32 0, i32* %2, align 4
  br label %15

15:                                               ; preds = %27, %0
  %16 = load i32, i32* %2, align 4
  %17 = load i32, i32* %1, align 4
  %18 = icmp slt i32 %16, %17
  br i1 %18, label %19, label %30

19:                                               ; preds = %15
  %20 = load i32, i32* %2, align 4
  %21 = sext i32 %20 to i64
  %22 = getelementptr inbounds [100 x i32], [100 x i32]* %6, i64 0, i64 %21
  %23 = load i32, i32* %2, align 4
  %24 = sext i32 %23 to i64
  %25 = getelementptr inbounds [100 x [26 x i8]], [100 x [26 x i8]]* %11, i64 0, i64 %24
  %26 = call i32 (i8*, ...) @__isoc99_scanf(i8* getelementptr inbounds ([6 x i8], [6 x i8]* @.str.1, i64 0, i64 0), i32* %22, [26 x i8]* %25)
  br label %27

27:                                               ; preds = %19
  %28 = load i32, i32* %2, align 4
  %29 = add nsw i32 %28, 1
  store i32 %29, i32* %2, align 4
  br label %15

30:                                               ; preds = %15
  store i32 0, i32* %2, align 4
  br label %31

31:                                               ; preds = %80, %30
  %32 = load i32, i32* %2, align 4
  %33 = load i32, i32* %1, align 4
  %34 = icmp slt i32 %32, %33
  br i1 %34, label %35, label %83

35:                                               ; preds = %31
  %36 = load i32, i32* %2, align 4
  %37 = sext i32 %36 to i64
  %38 = getelementptr inbounds [100 x [26 x i8]], [100 x [26 x i8]]* %11, i64 0, i64 %37
  %39 = getelementptr inbounds [26 x i8], [26 x i8]* %38, i64 0, i64 0
  %40 = call i64 @strlen(i8* %39) #4
  %41 = trunc i64 %40 to i32
  store i32 %41, i32* %7, align 4
  store i32 0, i32* %8, align 4
  br label %42

42:                                               ; preds = %76, %35
  %43 = load i32, i32* %8, align 4
  %44 = load i32, i32* %7, align 4
  %45 = icmp slt i32 %43, %44
  br i1 %45, label %46, label %79

46:                                               ; preds = %42
  store i32 0, i32* %9, align 4
  br label %47

47:                                               ; preds = %72, %46
  %48 = load i32, i32* %9, align 4
  %49 = icmp slt i32 %48, 26
  br i1 %49, label %50, label %75

50:                                               ; preds = %47
  %51 = load i32, i32* %2, align 4
  %52 = sext i32 %51 to i64
  %53 = getelementptr inbounds [100 x [26 x i8]], [100 x [26 x i8]]* %11, i64 0, i64 %52
  %54 = load i32, i32* %8, align 4
  %55 = sext i32 %54 to i64
  %56 = getelementptr inbounds [26 x i8], [26 x i8]* %53, i64 0, i64 %55
  %57 = load i8, i8* %56, align 1
  %58 = sext i8 %57 to i32
  %59 = load i32, i32* %9, align 4
  %60 = sext i32 %59 to i64
  %61 = getelementptr inbounds [26 x i8], [26 x i8]* %10, i64 0, i64 %60
  %62 = load i8, i8* %61, align 1
  %63 = sext i8 %62 to i32
  %64 = icmp eq i32 %58, %63
  br i1 %64, label %65, label %71

65:                                               ; preds = %50
  %66 = load i32, i32* %9, align 4
  %67 = sext i32 %66 to i64
  %68 = getelementptr inbounds [26 x i32], [26 x i32]* %5, i64 0, i64 %67
  %69 = load i32, i32* %68, align 4
  %70 = add nsw i32 %69, 1
  store i32 %70, i32* %68, align 4
  br label %75

71:                                               ; preds = %50
  br label %72

72:                                               ; preds = %71
  %73 = load i32, i32* %9, align 4
  %74 = add nsw i32 %73, 1
  store i32 %74, i32* %9, align 4
  br label %47

75:                                               ; preds = %65, %47
  br label %76

76:                                               ; preds = %75
  %77 = load i32, i32* %8, align 4
  %78 = add nsw i32 %77, 1
  store i32 %78, i32* %8, align 4
  br label %42

79:                                               ; preds = %42
  br label %80

80:                                               ; preds = %79
  %81 = load i32, i32* %2, align 4
  %82 = add nsw i32 %81, 1
  store i32 %82, i32* %2, align 4
  br label %31

83:                                               ; preds = %31
  store i32 0, i32* %2, align 4
  br label %84

84:                                               ; preds = %101, %83
  %85 = load i32, i32* %2, align 4
  %86 = icmp slt i32 %85, 26
  br i1 %86, label %87, label %104

87:                                               ; preds = %84
  %88 = load i32, i32* %4, align 4
  %89 = load i32, i32* %2, align 4
  %90 = sext i32 %89 to i64
  %91 = getelementptr inbounds [26 x i32], [26 x i32]* %5, i64 0, i64 %90
  %92 = load i32, i32* %91, align 4
  %93 = icmp slt i32 %88, %92
  br i1 %93, label %94, label %100

94:                                               ; preds = %87
  %95 = load i32, i32* %2, align 4
  store i32 %95, i32* %3, align 4
  %96 = load i32, i32* %2, align 4
  %97 = sext i32 %96 to i64
  %98 = getelementptr inbounds [26 x i32], [26 x i32]* %5, i64 0, i64 %97
  %99 = load i32, i32* %98, align 4
  store i32 %99, i32* %4, align 4
  br label %100

100:                                              ; preds = %94, %87
  br label %101

101:                                              ; preds = %100
  %102 = load i32, i32* %2, align 4
  %103 = add nsw i32 %102, 1
  store i32 %103, i32* %2, align 4
  br label %84

104:                                              ; preds = %84
  %105 = load i32, i32* %3, align 4
  %106 = sext i32 %105 to i64
  %107 = getelementptr inbounds [26 x i8], [26 x i8]* %10, i64 0, i64 %106
  %108 = load i8, i8* %107, align 1
  %109 = sext i8 %108 to i32
  %110 = call i32 (i8*, ...) @printf(i8* getelementptr inbounds ([4 x i8], [4 x i8]* @.str.2, i64 0, i64 0), i32 %109)
  %111 = load i32, i32* %4, align 4
  %112 = call i32 (i8*, ...) @printf(i8* getelementptr inbounds ([4 x i8], [4 x i8]* @.str.3, i64 0, i64 0), i32 %111)
  store i32 0, i32* %2, align 4
  br label %113

113:                                              ; preds = %154, %104
  %114 = load i32, i32* %2, align 4
  %115 = load i32, i32* %1, align 4
  %116 = icmp slt i32 %114, %115
  br i1 %116, label %117, label %157

117:                                              ; preds = %113
  %118 = load i32, i32* %2, align 4
  %119 = sext i32 %118 to i64
  %120 = getelementptr inbounds [100 x [26 x i8]], [100 x [26 x i8]]* %11, i64 0, i64 %119
  %121 = getelementptr inbounds [26 x i8], [26 x i8]* %120, i64 0, i64 0
  %122 = call i64 @strlen(i8* %121) #4
  %123 = trunc i64 %122 to i32
  store i32 %123, i32* %7, align 4
  store i32 0, i32* %8, align 4
  br label %124

124:                                              ; preds = %150, %117
  %125 = load i32, i32* %8, align 4
  %126 = load i32, i32* %7, align 4
  %127 = icmp slt i32 %125, %126
  br i1 %127, label %128, label %153

128:                                              ; preds = %124
  %129 = load i32, i32* %2, align 4
  %130 = sext i32 %129 to i64
  %131 = getelementptr inbounds [100 x [26 x i8]], [100 x [26 x i8]]* %11, i64 0, i64 %130
  %132 = load i32, i32* %8, align 4
  %133 = sext i32 %132 to i64
  %134 = getelementptr inbounds [26 x i8], [26 x i8]* %131, i64 0, i64 %133
  %135 = load i8, i8* %134, align 1
  %136 = sext i8 %135 to i32
  %137 = load i32, i32* %3, align 4
  %138 = sext i32 %137 to i64
  %139 = getelementptr inbounds [26 x i8], [26 x i8]* %10, i64 0, i64 %138
  %140 = load i8, i8* %139, align 1
  %141 = sext i8 %140 to i32
  %142 = icmp eq i32 %136, %141
  br i1 %142, label %143, label %149

143:                                              ; preds = %128
  %144 = load i32, i32* %2, align 4
  %145 = sext i32 %144 to i64
  %146 = getelementptr inbounds [100 x i32], [100 x i32]* %6, i64 0, i64 %145
  %147 = load i32, i32* %146, align 4
  %148 = call i32 (i8*, ...) @printf(i8* getelementptr inbounds ([4 x i8], [4 x i8]* @.str.3, i64 0, i64 0), i32 %147)
  br label %153

149:                                              ; preds = %128
  br label %150

150:                                              ; preds = %149
  %151 = load i32, i32* %8, align 4
  %152 = add nsw i32 %151, 1
  store i32 %152, i32* %8, align 4
  br label %124

153:                                              ; preds = %143, %124
  br label %154

154:                                              ; preds = %153
  %155 = load i32, i32* %2, align 4
  %156 = add nsw i32 %155, 1
  store i32 %156, i32* %2, align 4
  br label %113

157:                                              ; preds = %113
  ret void
}

; Function Attrs: argmemonly nounwind willreturn
declare void @llvm.memset.p0i8.i64(i8* nocapture writeonly, i8, i64, i1 immarg) #1

; Function Attrs: argmemonly nounwind willreturn
declare void @llvm.memcpy.p0i8.p0i8.i64(i8* noalias nocapture writeonly, i8* noalias nocapture readonly, i64, i1 immarg) #1

declare dso_local i32 @__isoc99_scanf(i8*, ...) #2

; Function Attrs: nounwind readonly
declare dso_local i64 @strlen(i8*) #3

declare dso_local i32 @printf(i8*, ...) #2


!llvm.module.flags = !{!0}
!llvm.ident = !{!1}

!0 = !{i32 1, !"wchar_size", i32 4}
!1 = !{!"clang version 10.0.0-4ubuntu1 "}
